target datalayout = "e-m:e-p270:32:32-p271:32:32-p272:64:64-i64:64-i128:128-f80:128-n8:16:32:64-S128"
target triple = "x86_64-unknown-linux-gnu"

%struct.V9fsPath = type { i16, ptr }
%struct.V9fsState = type { %struct.anon, %struct.anon.0, ptr, ptr, %struct.FsContext, ptr, i32, i32, [128 x %struct.V9fsPDU], ptr, %struct.CoRwlock, i32, ptr, %struct.V9fsConf, %struct.stat, i64, %struct.qht, %struct.qht, %struct.qht, i64, i16, i64 }
%struct.anon = type { ptr }
%struct.anon.0 = type { ptr }
%struct.FsContext = type { i32, ptr, i32, ptr, %struct.ExtendedOps, ptr, ptr, i32, i32 }
%struct.ExtendedOps = type { ptr }
%struct.V9fsPDU = type { i32, i16, i8, i8, %struct.CoQueue, ptr, %struct.anon.2, i32 }
%struct.CoQueue = type { %struct.anon.1 }
%struct.anon.1 = type { ptr, ptr }
%struct.anon.2 = type { ptr, ptr }
%struct.CoRwlock = type { %struct.CoMutex, i32, %struct.anon.4 }
%struct.CoMutex = type { i32, ptr, %struct.anon.3, %struct.anon.3, i32, i32, ptr }
%struct.anon.3 = type { ptr }
%struct.anon.4 = type { ptr, ptr }
%struct.V9fsConf = type { ptr, ptr }
%struct.stat = type { i64, i64, i64, i32, i32, i32, i32, i64, i64, i64, i64, %struct.timespec, %struct.timespec, %struct.timespec, [3 x i64] }
%struct.timespec = type { i64, i64 }
%struct.qht = type { ptr, ptr, %struct.QemuMutex, i32 }
%struct.QemuMutex = type { %union.pthread_mutex_t, i8 }
%union.pthread_mutex_t = type { %struct.__pthread_mutex_s }
%struct.__pthread_mutex_s = type { i32, i32, i32, i32, i32, i16, i16, %struct.__pthread_internal_list }
%struct.__pthread_internal_list = type { ptr, ptr }
%struct.V9fsFidState = type { i32, i32, %struct.V9fsPath, %union.V9fsFidOpenState, %union.V9fsFidOpenState, i32, i32, i32, i32, i8, %struct.anon.6, %struct.anon.7 }
%union.V9fsFidOpenState = type { %struct.V9fsDir }
%struct.V9fsDir = type { ptr, i32, %struct.CoMutex, %struct.QemuMutex }
%struct.anon.6 = type { ptr }
%struct.anon.7 = type { ptr }
%struct.V9fsString = type { i16, ptr }

@.str = private unnamed_addr constant [21 x i8] c"../qemu/hw/9pfs/9p.c\00", align 1
@.str.13 = private unnamed_addr constant [14 x i8] c"!(!fidp->ref)\00", align 1
@__PRETTY_FUNCTION__.put_fid = private unnamed_addr constant [39 x i8] c"int put_fid(V9fsPDU *, V9fsFidState *)\00", align 1
@.str.36 = private unnamed_addr constant [2 x i8] c".\00", align 1
@.str.37 = private unnamed_addr constant [3 x i8] c"..\00", align 1
@.str.110 = private unnamed_addr constant [4 x i8] c"dsd\00", align 1

; Function Attrs: nounwind sspstrong uwtable
define dso_local void @v9fs_path_free(ptr noundef %path) #0 {
entry:
  %path.addr = alloca ptr, align 8
  store ptr %path, ptr %path.addr, align 8
  %0 = load ptr, ptr %path.addr, align 8
  %data = getelementptr inbounds %struct.V9fsPath, ptr %0, i32 0, i32 1
  %1 = load ptr, ptr %data, align 8
  call void @g_free(ptr noundef %1)
  %2 = load ptr, ptr %path.addr, align 8
  %data1 = getelementptr inbounds %struct.V9fsPath, ptr %2, i32 0, i32 1
  store ptr null, ptr %data1, align 8
  %3 = load ptr, ptr %path.addr, align 8
  %size = getelementptr inbounds %struct.V9fsPath, ptr %3, i32 0, i32 0
  store i16 0, ptr %size, align 8
  ret void
}

; Function Attrs: nounwind sspstrong uwtable
define internal i32 @put_fid(ptr noundef %pdu, ptr noundef %fidp) #0 {
entry:
  %retval = alloca i32, align 4
  %pdu.addr = alloca ptr, align 8
  %fidp.addr = alloca ptr, align 8
  store ptr %pdu, ptr %pdu.addr, align 8
  store ptr %fidp, ptr %fidp.addr, align 8
  %0 = load ptr, ptr %fidp.addr, align 8
  %ref = getelementptr inbounds %struct.V9fsFidState, ptr %0, i32 0, i32 8
  %1 = load i32, ptr %ref, align 4
  %tobool = icmp ne i32 %1, 0
  br i1 %tobool, label %if.then, label %if.else

if.then:                                          ; preds = %entry
  br label %if.end

if.else:                                          ; preds = %entry
  call void @__assert_fail(ptr noundef @.str.13, ptr noundef @.str, i32 noundef 396, ptr noundef @__PRETTY_FUNCTION__.put_fid) #16
  unreachable

if.end:                                           ; preds = %if.then
  %2 = load ptr, ptr %fidp.addr, align 8
  %ref1 = getelementptr inbounds %struct.V9fsFidState, ptr %2, i32 0, i32 8
  %3 = load i32, ptr %ref1, align 4
  %dec = add i32 %3, -1
  store i32 %dec, ptr %ref1, align 4
  %4 = load ptr, ptr %fidp.addr, align 8
  %ref2 = getelementptr inbounds %struct.V9fsFidState, ptr %4, i32 0, i32 8
  %5 = load i32, ptr %ref2, align 4
  %tobool3 = icmp ne i32 %5, 0
  br i1 %tobool3, label %if.end9, label %land.lhs.true

land.lhs.true:                                    ; preds = %if.end
  %6 = load ptr, ptr %fidp.addr, align 8
  %clunked = getelementptr inbounds %struct.V9fsFidState, ptr %6, i32 0, i32 9
  %7 = load i8, ptr %clunked, align 8
  %tobool4 = trunc i8 %7 to i1
  br i1 %tobool4, label %if.then5, label %if.end9

if.then5:                                         ; preds = %land.lhs.true
  %8 = load ptr, ptr %fidp.addr, align 8
  %fid = getelementptr inbounds %struct.V9fsFidState, ptr %8, i32 0, i32 1
  %9 = load i32, ptr %fid, align 4
  %10 = load ptr, ptr %pdu.addr, align 8
  %s = getelementptr inbounds %struct.V9fsPDU, ptr %10, i32 0, i32 5
  %11 = load ptr, ptr %s, align 8
  %root_fid = getelementptr inbounds %struct.V9fsState, ptr %11, i32 0, i32 11
  %12 = load i32, ptr %root_fid, align 8
  %cmp = icmp eq i32 %9, %12
  br i1 %cmp, label %if.then6, label %if.end8

if.then6:                                         ; preds = %if.then5
  %13 = load ptr, ptr %pdu.addr, align 8
  %s7 = getelementptr inbounds %struct.V9fsPDU, ptr %13, i32 0, i32 5
  %14 = load ptr, ptr %s7, align 8
  %migration_blocker = getelementptr inbounds %struct.V9fsState, ptr %14, i32 0, i32 12
  call void @migrate_del_blocker(ptr noundef %migration_blocker)
  br label %if.end8

if.end8:                                          ; preds = %if.then6, %if.then5
  %15 = load ptr, ptr %pdu.addr, align 8
  %16 = load ptr, ptr %fidp.addr, align 8
  %call = call i32 @free_fid(ptr noundef %15, ptr noundef %16)
  store i32 %call, ptr %retval, align 4
  br label %return

if.end9:                                          ; preds = %land.lhs.true, %if.end
  store i32 0, ptr %retval, align 4
  br label %return

return:                                           ; preds = %if.end9, %if.end8
  %17 = load i32, ptr %retval, align 4
  ret i32 %17
}

; Function Attrs: nounwind sspstrong uwtable
define dso_local void @v9fs_path_init(ptr noundef %path) #0 {
entry:
  %path.addr = alloca ptr, align 8
  store ptr %path, ptr %path.addr, align 8
  %0 = load ptr, ptr %path.addr, align 8
  %data = getelementptr inbounds %struct.V9fsPath, ptr %0, i32 0, i32 1
  store ptr null, ptr %data, align 8
  %1 = load ptr, ptr %path.addr, align 8
  %size = getelementptr inbounds %struct.V9fsPath, ptr %1, i32 0, i32 0
  store i16 0, ptr %size, align 8
  ret void
}

; Function Attrs: nounwind sspstrong uwtable
define internal zeroext i1 @name_is_illegal(ptr noundef %name) #0 {
entry:
  %name.addr = alloca ptr, align 8
  store ptr %name, ptr %name.addr, align 8
  %0 = load ptr, ptr %name.addr, align 8
  %1 = load i8, ptr %0, align 1
  %tobool = icmp ne i8 %1, 0
  br i1 %tobool, label %lor.rhs, label %lor.end

lor.rhs:                                          ; preds = %entry
  %2 = load ptr, ptr %name.addr, align 8
  %call = call ptr @strchr(ptr noundef %2, i32 noundef 47) #18
  %cmp = icmp ne ptr %call, null
  br label %lor.end

lor.end:                                          ; preds = %lor.rhs, %entry
  %3 = phi i1 [ true, %entry ], [ %cmp, %lor.rhs ]
  ret i1 %3
}

; Function Attrs: nounwind sspstrong uwtable
define internal void @v9fs_string_init(ptr noundef %str) #0 {
entry:
  %str.addr = alloca ptr, align 8
  store ptr %str, ptr %str.addr, align 8
  %0 = load ptr, ptr %str.addr, align 8
  %data = getelementptr inbounds %struct.V9fsString, ptr %0, i32 0, i32 1
  store ptr null, ptr %data, align 8
  %1 = load ptr, ptr %str.addr, align 8
  %size = getelementptr inbounds %struct.V9fsString, ptr %1, i32 0, i32 0
  store i16 0, ptr %size, align 8
  ret void
}

; Function Attrs: nounwind sspstrong uwtable
define internal void @v9fs_unlinkat(ptr noundef %opaque) #0 {
entry:
  %opaque.addr = alloca ptr, align 8
  %err = alloca i32, align 4
  %name = alloca %struct.V9fsString, align 8
  %dfid = alloca i32, align 4
  %flags = alloca i32, align 4
  %rflags = alloca i32, align 4
  %offset = alloca i64, align 8
  %path = alloca %struct.V9fsPath, align 8
  %dfidp = alloca ptr, align 8
  %pdu = alloca ptr, align 8
  store ptr %opaque, ptr %opaque.addr, align 8
  store i32 0, ptr %err, align 4
  store i32 0, ptr %rflags, align 4
  store i64 7, ptr %offset, align 8
  %0 = load ptr, ptr %opaque.addr, align 8
  store ptr %0, ptr %pdu, align 8
  call void @v9fs_string_init(ptr noundef %name)
  %1 = load ptr, ptr %pdu, align 8
  %2 = load i64, ptr %offset, align 8
  %call = call i64 (ptr, i64, ptr, ...) @pdu_unmarshal(ptr noundef %1, i64 noundef %2, ptr noundef @.str.110, ptr noundef %dfid, ptr noundef %name, ptr noundef %flags)
  %conv = trunc i64 %call to i32
  store i32 %conv, ptr %err, align 4
  %3 = load i32, ptr %err, align 4
  %cmp = icmp slt i32 %3, 0
  br i1 %cmp, label %if.then, label %if.end

if.then:                                          ; preds = %entry
  br label %out_nofid

if.end:                                           ; preds = %entry
  %data = getelementptr inbounds %struct.V9fsString, ptr %name, i32 0, i32 1
  %4 = load ptr, ptr %data, align 8
  %call2 = call zeroext i1 @name_is_illegal(ptr noundef %4)
  br i1 %call2, label %if.then3, label %if.end4

if.then3:                                         ; preds = %if.end
  store i32 -2, ptr %err, align 4
  br label %out_nofid

if.end4:                                          ; preds = %if.end
  %data5 = getelementptr inbounds %struct.V9fsString, ptr %name, i32 0, i32 1
  %5 = load ptr, ptr %data5, align 8
  %call6 = call i32 @strcmp(ptr noundef @.str.36, ptr noundef %5) #18
  %tobool = icmp ne i32 %call6, 0
  br i1 %tobool, label %if.end8, label %if.then7

if.then7:                                         ; preds = %if.end4
  store i32 -22, ptr %err, align 4
  br label %out_nofid

if.end8:                                          ; preds = %if.end4
  %data9 = getelementptr inbounds %struct.V9fsString, ptr %name, i32 0, i32 1
  %6 = load ptr, ptr %data9, align 8
  %call10 = call i32 @strcmp(ptr noundef @.str.37, ptr noundef %6) #18
  %tobool11 = icmp ne i32 %call10, 0
  br i1 %tobool11, label %if.end13, label %if.then12

if.then12:                                        ; preds = %if.end8
  store i32 -39, ptr %err, align 4
  br label %out_nofid

if.end13:                                         ; preds = %if.end8
  %7 = load i32, ptr %flags, align 4
  %and = and i32 %7, -513
  %tobool14 = icmp ne i32 %and, 0
  br i1 %tobool14, label %if.then15, label %if.end16

if.then15:                                        ; preds = %if.end13
  store i32 -22, ptr %err, align 4
  br label %out_nofid

if.end16:                                         ; preds = %if.end13
  %8 = load i32, ptr %flags, align 4
  %and17 = and i32 %8, 512
  %tobool18 = icmp ne i32 %and17, 0
  br i1 %tobool18, label %if.then19, label %if.end20

if.then19:                                        ; preds = %if.end16
  %9 = load i32, ptr %rflags, align 4
  %or = or i32 %9, 512
  store i32 %or, ptr %rflags, align 4
  br label %if.end20

if.end20:                                         ; preds = %if.then19, %if.end16
  %10 = load ptr, ptr %pdu, align 8
  %11 = load i32, ptr %dfid, align 4
  %call21 = call ptr @get_fid(ptr noundef %10, i32 noundef %11)
  store ptr %call21, ptr %dfidp, align 8
  %12 = load ptr, ptr %dfidp, align 8
  %cmp22 = icmp eq ptr %12, null
  br i1 %cmp22, label %if.then24, label %if.end25

if.then24:                                        ; preds = %if.end20
  store i32 -22, ptr %err, align 4
  br label %out_nofid

if.end25:                                         ; preds = %if.end20
  call void @v9fs_path_init(ptr noundef %path)
  %13 = load ptr, ptr %pdu, align 8
  %14 = load ptr, ptr %dfidp, align 8
  %path26 = getelementptr inbounds %struct.V9fsFidState, ptr %14, i32 0, i32 2
  %data27 = getelementptr inbounds %struct.V9fsString, ptr %name, i32 0, i32 1
  %15 = load ptr, ptr %data27, align 8
  %call28 = call i32 @v9fs_co_name_to_path(ptr noundef %13, ptr noundef %path26, ptr noundef %15, ptr noundef %path)
  store i32 %call28, ptr %err, align 4
  %16 = load i32, ptr %err, align 4
  %cmp29 = icmp slt i32 %16, 0
  br i1 %cmp29, label %if.then31, label %if.end32

if.then31:                                        ; preds = %if.end25
  br label %out_err

if.end32:                                         ; preds = %if.end25
  %17 = load ptr, ptr %pdu, align 8
  %call33 = call i32 @v9fs_mark_fids_unreclaim(ptr noundef %17, ptr noundef %path)
  store i32 %call33, ptr %err, align 4
  %18 = load i32, ptr %err, align 4
  %cmp34 = icmp slt i32 %18, 0
  br i1 %cmp34, label %if.then36, label %if.end37

if.then36:                                        ; preds = %if.end32
  br label %out_err

if.end37:                                         ; preds = %if.end32
  %19 = load ptr, ptr %pdu, align 8
  %20 = load ptr, ptr %dfidp, align 8
  %path38 = getelementptr inbounds %struct.V9fsFidState, ptr %20, i32 0, i32 2
  %21 = load i32, ptr %rflags, align 4
  %call39 = call i32 @v9fs_co_unlinkat(ptr noundef %19, ptr noundef %path38, ptr noundef %name, i32 noundef %21)
  store i32 %call39, ptr %err, align 4
  %22 = load i32, ptr %err, align 4
  %tobool40 = icmp ne i32 %22, 0
  br i1 %tobool40, label %if.end43, label %if.then41

if.then41:                                        ; preds = %if.end37
  %23 = load i64, ptr %offset, align 8
  %conv42 = trunc i64 %23 to i32
  store i32 %conv42, ptr %err, align 4
  br label %if.end43

if.end43:                                         ; preds = %if.then41, %if.end37
  br label %out_err

out_err:                                          ; preds = %if.end43, %if.then36, %if.then31
  %24 = load ptr, ptr %pdu, align 8
  %25 = load ptr, ptr %dfidp, align 8
  %call44 = call i32 @put_fid(ptr noundef %24, ptr noundef %25)
  call void @v9fs_path_free(ptr noundef %path)
  br label %out_nofid

out_nofid:                                        ; preds = %out_err, %if.then24, %if.then15, %if.then12, %if.then7, %if.then3, %if.then
  %26 = load ptr, ptr %pdu, align 8
  %27 = load i32, ptr %err, align 4
  %conv45 = sext i32 %27 to i64
  call void @pdu_complete(ptr noundef %26, i64 noundef %conv45)
  call void @v9fs_string_free(ptr noundef %name)
  ret void
}