; Function Attrs: nounwind sspstrong uwtable
define internal void @v9fs_unlinkat(ptr noundef %opaque) #0 {
entry:
  %name = alloca %struct.V9fsString, align 8
  %dfid = alloca i32, align 4
  %flags = alloca i32, align 4
  %path = alloca %struct.V9fsPath, align 8
  %data.i = getelementptr inbounds nuw i8, ptr %name, i64 8
  store ptr null, ptr %data.i, align 8
  store i16 0, ptr %name, align 8
  %call = call i64 (ptr, i64, ptr, ...) @pdu_unmarshal(ptr noundef %opaque, i64 noundef 7, ptr noundef nonnull @.str.110, ptr noundef nonnull %dfid, ptr noundef nonnull %name, ptr noundef nonnull %flags)
  %conv = trunc i64 %call to i32
  %cmp = icmp slt i32 %conv, 0
  br i1 %cmp, label %out_nofid, label %if.end

if.end:                                           ; preds = %entry
  %0 = load ptr, ptr %data.i, align 8
  %1 = load i8, ptr %0, align 1
  %tobool.not.i = icmp eq i8 %1, 0
  br i1 %tobool.not.i, label %out_nofid, label %name_is_illegal.exit

name_is_illegal.exit:                             ; preds = %if.end
  %call.i = call ptr @strchr(ptr noundef nonnull readonly dereferenceable(1) %0, i32 noundef 47) #29
  %cmp.i.not = icmp eq ptr %call.i, null
  br i1 %cmp.i.not, label %sub_0, label %out_nofid

sub_0:                                            ; preds = %name_is_illegal.exit
  %.not = icmp eq i8 %1, 46
  br i1 %.not, label %if.end4.tail, label %if.end4.tail.thread

if.end4.tail:                                     ; preds = %sub_0
  %2 = getelementptr inbounds nuw i8, ptr %0, i64 1
  %3 = load i8, ptr %2, align 1
  %tobool.not = icmp eq i8 %3, 0
  br i1 %tobool.not, label %out_nofid, label %sub_123

if.end4.tail.thread:                              ; preds = %sub_0
  %4 = zext i8 %1 to i32
  %5 = sub nsw i32 46, %4
  br label %if.end8.tail

sub_123:                                          ; preds = %if.end4.tail
  %6 = getelementptr inbounds nuw i8, ptr %0, i64 1
  %7 = load i8, ptr %6, align 1
  %8 = zext i8 %7 to i32
  %9 = sub nsw i32 46, %8
  %.not26 = icmp eq i8 %7, 46
  br i1 %.not26, label %sub_2, label %if.end8.tail

sub_2:                                            ; preds = %sub_123
  %10 = getelementptr inbounds nuw i8, ptr %0, i64 2
  %11 = load i8, ptr %10, align 1
  %12 = zext i8 %11 to i32
  %13 = sub nsw i32 0, %12
  br label %if.end8.tail

if.end8.tail:                                     ; preds = %if.end4.tail.thread, %sub_123, %sub_2
  %14 = phi i32 [ %9, %sub_123 ], [ %13, %sub_2 ], [ %5, %if.end4.tail.thread ]
  %tobool11.not = icmp eq i32 %14, 0
  br i1 %tobool11.not, label %out_nofid, label %if.end13

if.end13:                                         ; preds = %if.end8.tail
  %15 = load i32, ptr %flags, align 4
  %and = and i32 %15, -513
  %tobool14.not = icmp eq i32 %and, 0
  br i1 %tobool14.not, label %if.end16, label %out_nofid

if.end16:                                         ; preds = %if.end13
  %tobool18.not = icmp eq i32 %15, 0
  %spec.select = select i1 %tobool18.not, i32 0, i32 512
  %16 = load i32, ptr %dfid, align 4
  %call21 = call ptr @get_fid(ptr noundef %opaque, i32 noundef %16)
  %cmp22 = icmp eq ptr %call21, null
  br i1 %cmp22, label %out_nofid, label %if.end25

if.end25:                                         ; preds = %if.end16
  %data.i17 = getelementptr inbounds nuw i8, ptr %path, i64 8
  store ptr null, ptr %data.i17, align 8
  store i16 0, ptr %path, align 8
  %path26 = getelementptr inbounds nuw i8, ptr %call21, i64 8
  %17 = load ptr, ptr %data.i, align 8
  %call28 = call i32 @v9fs_co_name_to_path(ptr noundef %opaque, ptr noundef nonnull %path26, ptr noundef %17, ptr noundef nonnull %path) #24
  %cmp29 = icmp slt i32 %call28, 0
  br i1 %cmp29, label %out_err, label %if.end32

if.end32:                                         ; preds = %if.end25
  %call33 = call i32 @v9fs_mark_fids_unreclaim(ptr noundef %opaque, ptr noundef nonnull %path)
  %cmp34 = icmp slt i32 %call33, 0
  br i1 %cmp34, label %out_err, label %if.end37

if.end37:                                         ; preds = %if.end32
  %call39 = call i32 @v9fs_co_unlinkat(ptr noundef %opaque, ptr noundef nonnull %path26, ptr noundef nonnull %name, i32 noundef %spec.select) #24
  %tobool40.not = icmp eq i32 %call39, 0
  %spec.select16 = select i1 %tobool40.not, i32 7, i32 %call39
  br label %out_err

out_err:                                          ; preds = %if.end37, %if.end32, %if.end25
  %err.1 = phi i32 [ %call28, %if.end25 ], [ %call33, %if.end32 ], [ %spec.select16, %if.end37 ]
  %ref.i = getelementptr inbounds nuw i8, ptr %call21, i64 260
  %18 = load i32, ptr %ref.i, align 4
  %tobool.not.i18 = icmp eq i32 %18, 0
  br i1 %tobool.not.i18, label %if.else.i, label %if.end.i

if.else.i:                                        ; preds = %out_err
  call void @__assert_fail(ptr noundef nonnull @.str.13, ptr noundef nonnull @.str, i32 noundef 396, ptr noundef nonnull @__PRETTY_FUNCTION__.put_fid) #28
  unreachable

if.end.i:                                         ; preds = %out_err
  %dec.i = add i32 %18, -1
  store i32 %dec.i, ptr %ref.i, align 4
  %tobool3.not.i = icmp eq i32 %dec.i, 0
  br i1 %tobool3.not.i, label %land.lhs.true.i, label %put_fid.exit

land.lhs.true.i:                                  ; preds = %if.end.i
  %clunked.i = getelementptr inbounds nuw i8, ptr %call21, i64 264
  %19 = load i8, ptr %clunked.i, align 8
  %tobool4.i = trunc i8 %19 to i1
  br i1 %tobool4.i, label %if.then5.i, label %put_fid.exit

if.then5.i:                                       ; preds = %land.lhs.true.i
  %fid.i = getelementptr inbounds nuw i8, ptr %call21, i64 4
  %20 = load i32, ptr %fid.i, align 4
  %s.i = getelementptr inbounds nuw i8, ptr %opaque, i64 24
  %21 = load ptr, ptr %s.i, align 8
  %root_fid.i = getelementptr inbounds nuw i8, ptr %21, i64 7360
  %22 = load i32, ptr %root_fid.i, align 8
  %cmp.i19 = icmp eq i32 %20, %22
  br i1 %cmp.i19, label %if.then6.i, label %if.end8.i

if.then6.i:                                       ; preds = %if.then5.i
  %migration_blocker.i = getelementptr inbounds nuw i8, ptr %21, i64 7368
  call void @migrate_del_blocker(ptr noundef nonnull %migration_blocker.i) #24
  br label %if.end8.i

if.end8.i:                                        ; preds = %if.then6.i, %if.then5.i
  %call.i20 = call i32 @free_fid(ptr noundef nonnull %opaque, ptr noundef nonnull %call21)
  br label %put_fid.exit

put_fid.exit:                                     ; preds = %if.end.i, %land.lhs.true.i, %if.end8.i
  %23 = load ptr, ptr %data.i17, align 8
  call void @g_free(ptr noundef %23) #24
  store ptr null, ptr %data.i17, align 8
  store i16 0, ptr %path, align 8
  br label %out_nofid

out_nofid:                                        ; preds = %if.end, %if.end16, %if.end13, %if.end8.tail, %if.end4.tail, %name_is_illegal.exit, %entry, %put_fid.exit
  %err.0 = phi i32 [ %conv, %entry ], [ %err.1, %put_fid.exit ], [ -2, %name_is_illegal.exit ], [ -22, %if.end4.tail ], [ -39, %if.end8.tail ], [ -22, %if.end13 ], [ -22, %if.end16 ], [ -2, %if.end ]
  %conv45 = sext i32 %err.0 to i64
  call void @pdu_complete(ptr noundef %opaque, i64 noundef %conv45)
  call void @v9fs_string_free(ptr noundef nonnull %name) #24
  ret void
}